target datalayout = "e-m:e-p270:32:32-p271:32:32-p272:64:64-i64:64-i128:128-f80:128-n8:16:32:64-S128"
target triple = "x86_64-pc-linux-gnu"

%struct.pm_scope_node = type { %struct.pm_node, ptr, ptr, ptr, ptr, %struct.pm_constant_id_list_t, ptr, ptr, ptr, ptr, i32, ptr, ptr, i32, ptr }
%struct.pm_node = type { i16, i16, i32, %struct.pm_location_t }
%struct.pm_location_t = type { ptr, ptr }
%struct.pm_constant_id_list_t = type { i64, i64, ptr }
%struct.pm_parser = type { i32, i32, i32, i32, i32, i32, i32, %struct.anon.23, ptr, ptr, %struct.pm_token_t, %struct.pm_token_t, ptr, ptr, %struct.pm_list_t, %struct.pm_list_t, %struct.pm_location_t, %struct.pm_list_t, %struct.pm_list_t, ptr, ptr, ptr, ptr, ptr, ptr, ptr, %struct.pm_string_t, %struct.pm_constant_pool_t, %struct.pm_newline_list_t, i16, %struct.pm_string_t, i32, ptr, ptr, i32, i8, i8, i8, i8, i8, i8, i8, i8, i8, i8, i8, i8, i8 }
%struct.anon.23 = type { ptr, [4 x %struct.pm_lex_mode], i64 }
%struct.pm_lex_mode = type { i32, %union.anon.24, ptr }
%union.anon.24 = type { %struct.anon.28 }
%struct.anon.28 = type { %struct.pm_heredoc_lex_mode_t, ptr, ptr, i8 }
%struct.pm_heredoc_lex_mode_t = type { ptr, i64, i32, i32 }
%struct.pm_token_t = type { i32, ptr, ptr }
%struct.pm_list_t = type { i64, ptr, ptr }
%struct.pm_constant_pool_t = type { ptr, ptr, i32, i32 }
%struct.pm_newline_list_t = type { ptr, i64, i64, ptr }
%struct.pm_string_t = type { ptr, i64, i32 }

@.str.266 = private unnamed_addr constant [29 x i8] c"constant_id out of range: %u\00", align 1

; Function Attrs: nounwind sspstrong uwtable
define internal i64 @pm_constant_id_lookup(ptr noundef %0, i32 noundef %1) #0 {
  %3 = alloca ptr, align 8
  %4 = alloca i32, align 4
  store ptr %0, ptr %3, align 8, !tbaa !292
  store i32 %1, ptr %4, align 4, !tbaa !41
  %5 = load i32, ptr %4, align 4, !tbaa !41
  %6 = icmp ult i32 %5, 1
  br i1 %6, label %16, label %7

7:                                                ; preds = %2
  %8 = load i32, ptr %4, align 4, !tbaa !41
  %9 = load ptr, ptr %3, align 8, !tbaa !292
  %10 = getelementptr inbounds nuw %struct.pm_scope_node, ptr %9, i32 0, i32 6
  %11 = load ptr, ptr %10, align 8, !tbaa !307
  %12 = getelementptr inbounds nuw %struct.pm_parser, ptr %11, i32 0, i32 27
  %13 = getelementptr inbounds nuw %struct.pm_constant_pool_t, ptr %12, i32 0, i32 2
  %14 = load i32, ptr %13, align 8, !tbaa !758
  %15 = icmp ugt i32 %8, %14
  br i1 %15, label %16, label %18

16:                                               ; preds = %7, %2
  %17 = load i32, ptr %4, align 4, !tbaa !41
  call void (ptr, ...) @rb_bug(ptr noundef @.str.266, i32 noundef %17) #37
  unreachable

18:                                               ; preds = %7
  %19 = load ptr, ptr %3, align 8, !tbaa !292
  %20 = getelementptr inbounds nuw %struct.pm_scope_node, ptr %19, i32 0, i32 11
  %21 = load ptr, ptr %20, align 8, !tbaa !310
  %22 = load i32, ptr %4, align 4, !tbaa !41
  %23 = sub i32 %22, 1
  %24 = zext i32 %23 to i64
  %25 = getelementptr i64, ptr %21, i64 %24
  %26 = load i64, ptr %25, align 8, !tbaa !7
  ret i64 %26
}