; Function Attrs: nounwind sspstrong uwtable
define internal fastcc i64 @pm_constant_id_lookup(ptr noundef readonly captures(none) %0, i32 noundef %1) unnamed_addr #1 {
  %3 = icmp eq i32 %1, 0
  br i1 %3, label %10, label %4

4:                                                ; preds = %2
  %5 = getelementptr inbounds nuw i8, ptr %0, i64 80
  %6 = load ptr, ptr %5, align 8, !tbaa !407
  %7 = getelementptr inbounds nuw i8, ptr %6, i64 592
  %8 = load i32, ptr %7, align 8, !tbaa !712
  %9 = icmp ugt i32 %1, %8
  br i1 %9, label %10, label %11

10:                                               ; preds = %4, %2
  tail call void (ptr, ...) @rb_bug(ptr noundef nonnull @.str.266, i32 noundef %1) #39
  unreachable

11:                                               ; preds = %4
  %12 = getelementptr inbounds nuw i8, ptr %0, i64 120
  %13 = load ptr, ptr %12, align 8, !tbaa !410
  %14 = add i32 %1, -1
  %15 = zext i32 %14 to i64
  %16 = getelementptr i64, ptr %13, i64 %15
  %17 = load i64, ptr %16, align 8, !tbaa !37
  ret i64 %17
}